; Function Attrs: nounwind sspstrong uwtable
define internal void @virtio_config_guest_notifier_read(ptr noundef %n) #0 {
entry:
  %call = tail call i32 @event_notifier_test_and_clear(ptr noundef %n) #23
  %tobool.not = icmp eq i32 %call, 0
  br i1 %tobool.not, label %if.end, label %if.then

if.then:                                          ; preds = %entry
  %add.ptr = getelementptr i8, ptr %n, i64 -504
  tail call void @virtio_notify_config(ptr noundef %add.ptr)
  br label %if.end

if.end:                                           ; preds = %if.then, %entry
  ret void
}